target datalayout = "e-m:e-p270:32:32-p271:32:32-p272:64:64-i64:64-i128:128-f80:128-n8:16:32:64-S128"
target triple = "x86_64-pc-linux-gnu"

%struct.ParseRule = type { ptr, ptr, i32 }
%struct.Vmem = type { ptr, i64, i64 }
%struct.ParseContext_ = type { %struct.TokenData, i32, %union.SourceSpan, %union.SourceSpan, ptr, %struct.Lexer }
%struct.TokenData = type { ptr, i64, %union.anon.86 }
%union.anon.86 = type { %struct.anon.89 }
%struct.anon.89 = type { %struct.Int128_, i8 }
%struct.Int128_ = type { i64, i64 }
%union.SourceSpan = type { i64 }
%struct.Lexer = type { ptr, ptr, ptr, ptr, i32, i32, ptr, ptr, ptr, %struct.TokenData, %union.SourceSpan, i32, i32 }
%struct.Expr_ = type { ptr, %union.SourceSpan, i16, %union.anon.30 }
%union.anon.30 = type { %struct.ExprAnySwitch }
%struct.ExprAnySwitch = type { i8, %union.anon.32 }
%union.anon.32 = type { %struct.anon.33 }
%struct.anon.33 = type { ptr, %union.SourceSpan, ptr }
%struct.anon.0 = type { i16, i8, i8, i32 }
%struct.ExprBinary = type { i32, i32, i8 }

@poisoned_expr = external global ptr, align 8
@expr_arena = external global %struct.Vmem, align 8

; Function Attrs: nounwind uwtable
define internal i64 @extend_span_with_token(i64 %0, i64 %1) #0 {
  %3 = alloca %union.SourceSpan, align 8
  %4 = alloca %union.SourceSpan, align 8
  %5 = alloca %union.SourceSpan, align 8
  %6 = getelementptr inbounds %union.SourceSpan, ptr %4, i32 0, i32 0
  store i64 %0, ptr %6, align 8
  %7 = getelementptr inbounds %union.SourceSpan, ptr %5, i32 0, i32 0
  store i64 %1, ptr %7, align 8
  %8 = getelementptr inbounds %struct.anon.0, ptr %4, i32 0, i32 3
  %9 = load i32, ptr %8, align 4
  %10 = getelementptr inbounds %struct.anon.0, ptr %5, i32 0, i32 3
  %11 = load i32, ptr %10, align 4
  %12 = icmp ne i32 %9, %11
  br i1 %12, label %13, label %14

13:                                               ; preds = %2
  call void @llvm.memcpy.p0.p0.i64(ptr align 8 %3, ptr align 8 %4, i64 8, i1 false)
  br label %28

14:                                               ; preds = %2
  %15 = getelementptr inbounds %struct.anon.0, ptr %5, i32 0, i32 2
  %16 = load i8, ptr %15, align 1
  %17 = zext i8 %16 to i32
  %18 = getelementptr inbounds %struct.anon.0, ptr %5, i32 0, i32 1
  %19 = load i8, ptr %18, align 2
  %20 = zext i8 %19 to i32
  %21 = add nsw i32 %17, %20
  %22 = getelementptr inbounds %struct.anon.0, ptr %4, i32 0, i32 2
  %23 = load i8, ptr %22, align 1
  %24 = zext i8 %23 to i32
  %25 = sub nsw i32 %21, %24
  %26 = trunc i32 %25 to i8
  %27 = getelementptr inbounds %struct.anon.0, ptr %4, i32 0, i32 1
  store i8 %26, ptr %27, align 2
  call void @llvm.memcpy.p0.p0.i64(ptr align 8 %3, ptr align 8 %4, i64 8, i1 false)
  br label %28

28:                                               ; preds = %14, %13
  %29 = getelementptr inbounds %union.SourceSpan, ptr %3, i32 0, i32 0
  %30 = load i64, ptr %29, align 8
  ret i64 %30
}

; Function Attrs: nounwind uwtable
define internal i32 @exprid(ptr noundef %0) #0 {
  %2 = alloca ptr, align 8
  store ptr %0, ptr %2, align 8
  %3 = load ptr, ptr %2, align 8
  %4 = load ptr, ptr @expr_arena, align 8
  %5 = ptrtoint ptr %3 to i64
  %6 = ptrtoint ptr %4 to i64
  %7 = sub i64 %5, %6
  %8 = sdiv exact i64 %7, 56
  %9 = trunc i64 %8 to i32
  ret i32 %9
}

; Function Attrs: nounwind uwtable
define internal ptr @parse_binary(ptr noundef %0, ptr noundef %1) #0 {
  %3 = alloca i32, align 4
  %4 = alloca ptr, align 8
  %5 = alloca ptr, align 8
  %6 = alloca ptr, align 8
  %7 = alloca ptr, align 8
  %8 = alloca ptr, align 8
  %9 = alloca ptr, align 8
  %10 = alloca i32, align 4
  %11 = alloca ptr, align 8
  %12 = alloca ptr, align 8
  %13 = alloca ptr, align 8
  %14 = alloca ptr, align 8
  %15 = alloca %union.SourceSpan, align 8
  store ptr %0, ptr %8, align 8
  store ptr %1, ptr %9, align 8
  %16 = load ptr, ptr %8, align 8
  %17 = getelementptr inbounds %struct.ParseContext_, ptr %16, i32 0, i32 1
  %18 = load i32, ptr %17, align 8
  store i32 %18, ptr %10, align 4
  %19 = load ptr, ptr %8, align 8
  call void @advance(ptr noundef %19)
  %20 = load i32, ptr %10, align 4
  %21 = zext i32 %20 to i64
  %22 = getelementptr inbounds [190 x %struct.ParseRule], ptr @rules, i64 0, i64 %21
  %23 = getelementptr inbounds %struct.ParseRule, ptr %22, i32 0, i32 2
  %24 = load i32, ptr %23, align 8
  %25 = icmp eq i32 %24, 1
  br i1 %25, label %26, label %45

26:                                               ; preds = %2
  %27 = load ptr, ptr %8, align 8
  %28 = call ptr @parse_precedence(ptr noundef %27, i32 noundef 1)
  store ptr %28, ptr %12, align 8
  %29 = load ptr, ptr %12, align 8
  store ptr %29, ptr %5, align 8
  %30 = load ptr, ptr %5, align 8
  %31 = icmp eq ptr %30, null
  br i1 %31, label %39, label %32

32:                                               ; preds = %26
  %33 = load ptr, ptr %5, align 8
  %34 = getelementptr inbounds %struct.Expr_, ptr %33, i32 0, i32 2
  %35 = load i16, ptr %34, align 8
  %36 = and i16 %35, 255
  %37 = zext i16 %36 to i32
  %38 = icmp ne i32 %37, 0
  br label %39

39:                                               ; preds = %32, %26
  %40 = phi i1 [ true, %26 ], [ %38, %32 ]
  br i1 %40, label %43, label %41

41:                                               ; preds = %39
  %42 = load ptr, ptr @poisoned_expr, align 8
  store ptr %42, ptr %7, align 8
  br label %108

43:                                               ; preds = %39
  %44 = load ptr, ptr %12, align 8
  store ptr %44, ptr %11, align 8
  br label %70

45:                                               ; preds = %2
  %46 = load ptr, ptr %8, align 8
  %47 = load i32, ptr %10, align 4
  %48 = zext i32 %47 to i64
  %49 = getelementptr inbounds [190 x %struct.ParseRule], ptr @rules, i64 0, i64 %48
  %50 = getelementptr inbounds %struct.ParseRule, ptr %49, i32 0, i32 2
  %51 = load i32, ptr %50, align 8
  %52 = add i32 %51, 1
  %53 = call ptr @parse_precedence(ptr noundef %46, i32 noundef %52)
  store ptr %53, ptr %13, align 8
  %54 = load ptr, ptr %13, align 8
  store ptr %54, ptr %6, align 8
  %55 = load ptr, ptr %6, align 8
  %56 = icmp eq ptr %55, null
  br i1 %56, label %64, label %57

57:                                               ; preds = %45
  %58 = load ptr, ptr %6, align 8
  %59 = getelementptr inbounds %struct.Expr_, ptr %58, i32 0, i32 2
  %60 = load i16, ptr %59, align 8
  %61 = and i16 %60, 255
  %62 = zext i16 %61 to i32
  %63 = icmp ne i32 %62, 0
  br label %64

64:                                               ; preds = %57, %45
  %65 = phi i1 [ true, %45 ], [ %63, %57 ]
  br i1 %65, label %68, label %66

66:                                               ; preds = %64
  %67 = load ptr, ptr @poisoned_expr, align 8
  store ptr %67, ptr %7, align 8
  br label %108

68:                                               ; preds = %64
  %69 = load ptr, ptr %13, align 8
  store ptr %69, ptr %11, align 8
  br label %70

70:                                               ; preds = %68, %43
  %71 = load ptr, ptr %9, align 8
  store i32 3, ptr %3, align 4
  store ptr %71, ptr %4, align 8
  %72 = load i32, ptr %3, align 4
  %73 = load ptr, ptr %4, align 8
  %74 = getelementptr inbounds %struct.Expr_, ptr %73, i32 0, i32 1
  %75 = load i64, ptr %74, align 8
  %76 = call ptr @expr_new(i32 noundef %72, i64 %75) #5
  store ptr %76, ptr %14, align 8
  %77 = load i32, ptr %10, align 4
  %78 = call i32 @binaryop_from_token(i32 noundef %77)
  %79 = load ptr, ptr %14, align 8
  %80 = getelementptr inbounds %struct.Expr_, ptr %79, i32 0, i32 3
  %81 = getelementptr inbounds %struct.ExprBinary, ptr %80, i32 0, i32 2
  %82 = trunc i32 %78 to i8
  store i8 %82, ptr %81, align 8
  %83 = load ptr, ptr %9, align 8
  %84 = call i32 @exprid(ptr noundef %83)
  %85 = load ptr, ptr %14, align 8
  %86 = getelementptr inbounds %struct.Expr_, ptr %85, i32 0, i32 3
  %87 = getelementptr inbounds %struct.ExprBinary, ptr %86, i32 0, i32 0
  store i32 %84, ptr %87, align 8
  %88 = load ptr, ptr %11, align 8
  %89 = call i32 @exprid(ptr noundef %88)
  %90 = load ptr, ptr %14, align 8
  %91 = getelementptr inbounds %struct.Expr_, ptr %90, i32 0, i32 3
  %92 = getelementptr inbounds %struct.ExprBinary, ptr %91, i32 0, i32 1
  store i32 %89, ptr %92, align 4
  br label %93

93:                                               ; preds = %70
  %94 = load ptr, ptr %14, align 8
  %95 = getelementptr inbounds %struct.Expr_, ptr %94, i32 0, i32 1
  %96 = load ptr, ptr %14, align 8
  %97 = getelementptr inbounds %struct.Expr_, ptr %96, i32 0, i32 1
  %98 = load ptr, ptr %8, align 8
  %99 = getelementptr inbounds %struct.ParseContext_, ptr %98, i32 0, i32 3
  %100 = getelementptr inbounds %union.SourceSpan, ptr %97, i32 0, i32 0
  %101 = load i64, ptr %100, align 8
  %102 = getelementptr inbounds %union.SourceSpan, ptr %99, i32 0, i32 0
  %103 = load i64, ptr %102, align 8
  %104 = call i64 @extend_span_with_token(i64 %101, i64 %103)
  %105 = getelementptr inbounds %union.SourceSpan, ptr %15, i32 0, i32 0
  store i64 %104, ptr %105, align 8
  call void @llvm.memcpy.p0.p0.i64(ptr align 8 %95, ptr align 8 %15, i64 8, i1 false)
  br label %106

106:                                              ; preds = %93
  %107 = load ptr, ptr %14, align 8
  store ptr %107, ptr %7, align 8
  br label %108

108:                                              ; preds = %106, %66, %41
  %109 = load ptr, ptr %7, align 8
  ret ptr %109
}