; Function Attrs: nounwind uwtable
define internal ptr @parse_binary(ptr noundef %0, ptr noundef %1) #1 {
  %3 = getelementptr inbounds i8, ptr %0, i64 40
  %4 = load i32, ptr %3, align 8
  tail call void @advance(ptr noundef %0) #8
  %5 = zext i32 %4 to i64
  %6 = getelementptr inbounds [190 x %struct.ParseRule], ptr @rules, i64 0, i64 %5, i32 2
  %7 = load i32, ptr %6, align 8
  %8 = icmp eq i32 %7, 1
  br i1 %8, label %9, label %18

9:                                                ; preds = %2
  %10 = tail call fastcc ptr @parse_precedence(ptr noundef nonnull %0, i32 noundef 1)
  %11 = icmp eq ptr %10, null
  br i1 %11, label %.critedge, label %12

12:                                               ; preds = %9
  %13 = getelementptr inbounds i8, ptr %10, i64 16
  %14 = load i16, ptr %13, align 8
  %15 = and i16 %14, 255
  %.not33 = icmp eq i16 %15, 0
  br i1 %.not33, label %16, label %.critedge

16:                                               ; preds = %12
  %17 = load ptr, ptr @poisoned_expr, align 8
  br label %60

18:                                               ; preds = %2
  %19 = add i32 %7, 1
  %20 = tail call fastcc ptr @parse_precedence(ptr noundef nonnull %0, i32 noundef %19)
  %21 = icmp eq ptr %20, null
  br i1 %21, label %.critedge, label %22

22:                                               ; preds = %18
  %23 = getelementptr inbounds i8, ptr %20, i64 16
  %24 = load i16, ptr %23, align 8
  %25 = and i16 %24, 255
  %.not = icmp eq i16 %25, 0
  br i1 %.not, label %26, label %.critedge

26:                                               ; preds = %22
  %27 = load ptr, ptr @poisoned_expr, align 8
  br label %60

.critedge:                                        ; preds = %22, %18, %12, %9
  %.029 = phi ptr [ null, %9 ], [ %10, %12 ], [ null, %18 ], [ %20, %22 ]
  %28 = getelementptr inbounds i8, ptr %1, i64 8
  %29 = load i64, ptr %28, align 8
  %30 = tail call ptr @expr_new(i32 noundef 3, i64 %29) #8
  %31 = tail call i32 @binaryop_from_token(i32 noundef %4) #8
  %32 = getelementptr inbounds i8, ptr %30, i64 24
  %33 = getelementptr inbounds i8, ptr %30, i64 32
  %34 = trunc i32 %31 to i8
  store i8 %34, ptr %33, align 8
  %35 = load ptr, ptr @expr_arena, align 8
  %36 = ptrtoint ptr %1 to i64
  %37 = ptrtoint ptr %35 to i64
  %38 = sub i64 %36, %37
  %39 = sdiv exact i64 %38, 56
  %40 = trunc i64 %39 to i32
  store i32 %40, ptr %32, align 8
  %41 = ptrtoint ptr %.029 to i64
  %42 = sub i64 %41, %37
  %43 = sdiv exact i64 %42, 56
  %44 = trunc i64 %43 to i32
  %45 = getelementptr inbounds i8, ptr %30, i64 28
  store i32 %44, ptr %45, align 4
  %46 = getelementptr inbounds i8, ptr %30, i64 8
  %47 = getelementptr inbounds i8, ptr %0, i64 56
  %48 = load i64, ptr %46, align 8
  %49 = load i64, ptr %47, align 8
  %.not.unshifted.i = xor i64 %49, %48
  %.not.i = icmp ult i64 %.not.unshifted.i, 4294967296
  br i1 %.not.i, label %51, label %50

50:                                               ; preds = %.critedge
  %.sroa.33.0.extract.shift.i = lshr i64 %48, 16
  br label %extend_span_with_token.exit

51:                                               ; preds = %.critedge
  %.sroa.4.0.extract.shift.i = lshr i64 %48, 24
  %52 = trunc i64 %49 to i32
  %53 = lshr i32 %52, 24
  %54 = lshr i32 %52, 16
  %55 = trunc i64 %.sroa.4.0.extract.shift.i to i32
  %56 = sub i32 %54, %55
  %57 = add i32 %56, %53
  %58 = zext i32 %57 to i64
  br label %extend_span_with_token.exit

extend_span_with_token.exit:                      ; preds = %50, %51
  %.sroa.311.0.i = phi i64 [ %.sroa.33.0.extract.shift.i, %50 ], [ %58, %51 ]
  %.sroa.311.0.insert.ext.i = shl nuw i64 %.sroa.311.0.i, 16
  %.sroa.311.0.insert.shift.i = and i64 %.sroa.311.0.insert.ext.i, 16711680
  %59 = and i64 %48, -16711681
  %.sroa.010.0.insert.insert.i = or disjoint i64 %.sroa.311.0.insert.shift.i, %59
  store i64 %.sroa.010.0.insert.insert.i, ptr %46, align 8
  br label %60

60:                                               ; preds = %extend_span_with_token.exit, %26, %16
  %.0 = phi ptr [ %30, %extend_span_with_token.exit ], [ %17, %16 ], [ %27, %26 ]
  ret ptr %.0
}